target datalayout = "e-m:e-p270:32:32-p271:32:32-p272:64:64-i64:64-i128:128-f80:128-n8:16:32:64-S128"
target triple = "x86_64-pc-linux-gnu"

%struct.Abc_Ntk_t_ = type { i32, i32, ptr, ptr, ptr, ptr, ptr, ptr, ptr, ptr, ptr, ptr, ptr, [11 x i32], i32, i32, i32, i32, ptr, i32, ptr, ptr, i32, i32, i32, double, i32, %struct.Vec_Int_t_, ptr, ptr, ptr, ptr, ptr, float, i32, ptr, ptr, ptr, ptr, ptr, ptr, ptr, ptr, ptr, ptr, ptr, ptr, ptr, ptr, ptr, ptr, ptr, ptr, ptr, ptr, ptr, ptr }
%struct.Vec_Int_t_ = type { i32, i32, ptr }
%struct.Abc_Obj_t_ = type { ptr, ptr, i32, i32, %struct.Vec_Int_t_, %struct.Vec_Int_t_, %union.anon, %union.anon.0 }
%union.anon = type { ptr }
%union.anon.0 = type { ptr }
%struct.Vec_Wrd_t_ = type { i32, i32, ptr }

; Function Attrs: inlinehint nounwind uwtable
define internal i32 @Abc_ObjFaninId1(ptr noundef %0) #3 {
  %2 = alloca ptr, align 8
  store ptr %0, ptr %2, align 8, !tbaa !32
  %3 = load ptr, ptr %2, align 8, !tbaa !32
  %4 = getelementptr inbounds nuw %struct.Abc_Obj_t_, ptr %3, i32 0, i32 4
  %5 = getelementptr inbounds nuw %struct.Vec_Int_t_, ptr %4, i32 0, i32 2
  %6 = load ptr, ptr %5, align 8, !tbaa !72
  %7 = getelementptr inbounds i32, ptr %6, i64 1
  %8 = load i32, ptr %7, align 4, !tbaa !10
  ret i32 %8
}

; Function Attrs: inlinehint nounwind uwtable
define internal i32 @Abc_ObjFaninId0(ptr noundef %0) #3 {
  %2 = alloca ptr, align 8
  store ptr %0, ptr %2, align 8, !tbaa !32
  %3 = load ptr, ptr %2, align 8, !tbaa !32
  %4 = getelementptr inbounds nuw %struct.Abc_Obj_t_, ptr %3, i32 0, i32 4
  %5 = getelementptr inbounds nuw %struct.Vec_Int_t_, ptr %4, i32 0, i32 2
  %6 = load ptr, ptr %5, align 8, !tbaa !72
  %7 = getelementptr inbounds i32, ptr %6, i64 0
  %8 = load i32, ptr %7, align 4, !tbaa !10
  ret i32 %8
}

; Function Attrs: nounwind uwtable
define i32 @Mio_LibGateSimulateOne(ptr noundef %0, ptr noundef %1) #0 {
  %3 = alloca ptr, align 8
  %4 = alloca ptr, align 8
  %5 = alloca i32, align 4
  %6 = alloca i32, align 4
  %7 = alloca i32, align 4
  store ptr %0, ptr %3, align 8, !tbaa !35
  store ptr %1, ptr %4, align 8, !tbaa !78
  call void @llvm.lifetime.start.p0(i64 4, ptr %5) #14
  %8 = load ptr, ptr %3, align 8, !tbaa !35
  %9 = call i32 @Mio_GateReadPinNum(ptr noundef %8)
  store i32 %9, ptr %5, align 4, !tbaa !10
  call void @llvm.lifetime.start.p0(i64 4, ptr %6) #14
  call void @llvm.lifetime.start.p0(i64 4, ptr %7) #14
  store i32 0, ptr %7, align 4, !tbaa !10
  store i32 0, ptr %6, align 4, !tbaa !10
  br label %10

10:                                               ; preds = %27, %2
  %11 = load i32, ptr %6, align 4, !tbaa !10
  %12 = load i32, ptr %5, align 4, !tbaa !10
  %13 = icmp slt i32 %11, %12
  br i1 %13, label %14, label %30

14:                                               ; preds = %10
  %15 = load ptr, ptr %4, align 8, !tbaa !78
  %16 = load i32, ptr %6, align 4, !tbaa !10
  %17 = sext i32 %16 to i64
  %18 = getelementptr inbounds i32, ptr %15, i64 %17
  %19 = load i32, ptr %18, align 4, !tbaa !10
  %20 = icmp ne i32 %19, 0
  br i1 %20, label %21, label %26

21:                                               ; preds = %14
  %22 = load i32, ptr %6, align 4, !tbaa !10
  %23 = shl i32 1, %22
  %24 = load i32, ptr %7, align 4, !tbaa !10
  %25 = or i32 %24, %23
  store i32 %25, ptr %7, align 4, !tbaa !10
  br label %26

26:                                               ; preds = %21, %14
  br label %27

27:                                               ; preds = %26
  %28 = load i32, ptr %6, align 4, !tbaa !10
  %29 = add nsw i32 %28, 1
  store i32 %29, ptr %6, align 4, !tbaa !10
  br label %10, !llvm.loop !129

30:                                               ; preds = %10
  %31 = load ptr, ptr %3, align 8, !tbaa !35
  %32 = call ptr @Mio_GateReadTruthP(ptr noundef %31)
  %33 = load i32, ptr %7, align 4, !tbaa !10
  %34 = call i32 @Abc_InfoHasBit(ptr noundef %32, i32 noundef %33)
  call void @llvm.lifetime.end.p0(i64 4, ptr %7) #14
  call void @llvm.lifetime.end.p0(i64 4, ptr %6) #14
  call void @llvm.lifetime.end.p0(i64 4, ptr %5) #14
  ret i32 %34
}

; Function Attrs: inlinehint nounwind uwtable
define internal i32 @Abc_InfoHasBit(ptr noundef %0, i32 noundef %1) #3 {
  %3 = alloca ptr, align 8
  %4 = alloca i32, align 4
  store ptr %0, ptr %3, align 8, !tbaa !78
  store i32 %1, ptr %4, align 4, !tbaa !10
  %5 = load ptr, ptr %3, align 8, !tbaa !78
  %6 = load i32, ptr %4, align 4, !tbaa !10
  %7 = ashr i32 %6, 5
  %8 = sext i32 %7 to i64
  %9 = getelementptr inbounds i32, ptr %5, i64 %8
  %10 = load i32, ptr %9, align 4, !tbaa !10
  %11 = load i32, ptr %4, align 4, !tbaa !10
  %12 = and i32 %11, 31
  %13 = shl i32 1, %12
  %14 = and i32 %10, %13
  %15 = icmp ugt i32 %14, 0
  %16 = zext i1 %15 to i32
  ret i32 %16
}

; Function Attrs: inlinehint nounwind uwtable
define internal ptr @Vec_WrdEntryP(ptr noundef %0, i32 noundef %1) #3 {
  %3 = alloca ptr, align 8
  %4 = alloca i32, align 4
  store ptr %0, ptr %3, align 8, !tbaa !157
  store i32 %1, ptr %4, align 4, !tbaa !10
  %5 = load ptr, ptr %3, align 8, !tbaa !157
  %6 = getelementptr inbounds nuw %struct.Vec_Wrd_t_, ptr %5, i32 0, i32 2
  %7 = load ptr, ptr %6, align 8, !tbaa !168
  %8 = load i32, ptr %4, align 4, !tbaa !10
  %9 = sext i32 %8 to i64
  %10 = getelementptr inbounds i64, ptr %7, i64 %9
  ret ptr %10
}

; Function Attrs: inlinehint nounwind uwtable
define internal i32 @Abc_ObjFaninId(ptr noundef %0, i32 noundef %1) #3 {
  %3 = alloca ptr, align 8
  %4 = alloca i32, align 4
  store ptr %0, ptr %3, align 8, !tbaa !32
  store i32 %1, ptr %4, align 4, !tbaa !10
  %5 = load ptr, ptr %3, align 8, !tbaa !32
  %6 = getelementptr inbounds nuw %struct.Abc_Obj_t_, ptr %5, i32 0, i32 4
  %7 = getelementptr inbounds nuw %struct.Vec_Int_t_, ptr %6, i32 0, i32 2
  %8 = load ptr, ptr %7, align 8, !tbaa !72
  %9 = load i32, ptr %4, align 4, !tbaa !10
  %10 = sext i32 %9 to i64
  %11 = getelementptr inbounds i32, ptr %8, i64 %10
  %12 = load i32, ptr %11, align 4, !tbaa !10
  ret i32 %12
}

; Function Attrs: inlinehint nounwind uwtable
define internal i32 @Abc_ObjFaninNum(ptr noundef %0) #3 {
  %2 = alloca ptr, align 8
  store ptr %0, ptr %2, align 8, !tbaa !32
  %3 = load ptr, ptr %2, align 8, !tbaa !32
  %4 = getelementptr inbounds nuw %struct.Abc_Obj_t_, ptr %3, i32 0, i32 4
  %5 = getelementptr inbounds nuw %struct.Vec_Int_t_, ptr %4, i32 0, i32 1
  %6 = load i32, ptr %5, align 4, !tbaa !74
  ret i32 %6
}

; Function Attrs: inlinehint nounwind uwtable
define internal i32 @Abc_NtkIsMappedLogic(ptr noundef %0) #3 {
  %2 = alloca ptr, align 8
  store ptr %0, ptr %2, align 8, !tbaa !3
  %3 = load ptr, ptr %2, align 8, !tbaa !3
  %4 = getelementptr inbounds nuw %struct.Abc_Ntk_t_, ptr %3, i32 0, i32 1
  %5 = load i32, ptr %4, align 4, !tbaa !57
  %6 = icmp eq i32 %5, 4
  br i1 %6, label %7, label %12

7:                                                ; preds = %1
  %8 = load ptr, ptr %2, align 8, !tbaa !3
  %9 = getelementptr inbounds nuw %struct.Abc_Ntk_t_, ptr %8, i32 0, i32 0
  %10 = load i32, ptr %9, align 8, !tbaa !58
  %11 = icmp eq i32 %10, 2
  br label %12

12:                                               ; preds = %7, %1
  %13 = phi i1 [ false, %1 ], [ %11, %7 ]
  %14 = zext i1 %13 to i32
  ret i32 %14
}

; Function Attrs: inlinehint nounwind uwtable
define internal i32 @Abc_NtkFinSimOneBit(ptr noundef %0, i32 noundef %1, ptr noundef %2, i32 noundef %3, i32 noundef %4) #3 {
  %6 = alloca i32, align 4
  %7 = alloca ptr, align 8
  %8 = alloca i32, align 4
  %9 = alloca ptr, align 8
  %10 = alloca i32, align 4
  %11 = alloca i32, align 4
  %12 = alloca ptr, align 8
  %13 = alloca i32, align 4
  %14 = alloca [6 x i32], align 16
  %15 = alloca ptr, align 8
  %16 = alloca ptr, align 8
  %17 = alloca ptr, align 8
  %18 = alloca i32, align 4
  %19 = alloca i32, align 4
  %20 = alloca i32, align 4
  store ptr %0, ptr %7, align 8, !tbaa !32
  store i32 %1, ptr %8, align 4, !tbaa !10
  store ptr %2, ptr %9, align 8, !tbaa !157
  store i32 %3, ptr %10, align 4, !tbaa !10
  store i32 %4, ptr %11, align 4, !tbaa !10
  %21 = load ptr, ptr %7, align 8, !tbaa !32
  %22 = getelementptr inbounds nuw %struct.Abc_Obj_t_, ptr %21, i32 0, i32 0
  %23 = load ptr, ptr %22, align 8, !tbaa !71
  %24 = call i32 @Abc_NtkIsMappedLogic(ptr noundef %23)
  %25 = icmp ne i32 %24, 0
  br i1 %25, label %26, label %63

26:                                               ; preds = %5
  %27 = load i32, ptr %8, align 4, !tbaa !10
  %28 = icmp sge i32 %27, 0
  br i1 %28, label %29, label %63

29:                                               ; preds = %26
  call void @llvm.lifetime.start.p0(i64 8, ptr %12) #14
  %30 = load ptr, ptr %7, align 8, !tbaa !32
  %31 = getelementptr inbounds nuw %struct.Abc_Obj_t_, ptr %30, i32 0, i32 0
  %32 = load ptr, ptr %31, align 8, !tbaa !71
  %33 = getelementptr inbounds nuw %struct.Abc_Ntk_t_, ptr %32, i32 0, i32 30
  %34 = load ptr, ptr %33, align 8, !tbaa !12
  store ptr %34, ptr %12, align 8, !tbaa !27
  call void @llvm.lifetime.start.p0(i64 4, ptr %13) #14
  call void @llvm.lifetime.start.p0(i64 24, ptr %14) #14
  store i32 0, ptr %13, align 4, !tbaa !10
  br label %35

35:                                               ; preds = %54, %29
  %36 = load i32, ptr %13, align 4, !tbaa !10
  %37 = load ptr, ptr %7, align 8, !tbaa !32
  %38 = call i32 @Abc_ObjFaninNum(ptr noundef %37)
  %39 = icmp slt i32 %36, %38
  br i1 %39, label %40, label %57

40:                                               ; preds = %35
  call void @llvm.lifetime.start.p0(i64 8, ptr %15) #14
  %41 = load ptr, ptr %9, align 8, !tbaa !157
  %42 = load i32, ptr %10, align 4, !tbaa !10
  %43 = load ptr, ptr %7, align 8, !tbaa !32
  %44 = load i32, ptr %13, align 4, !tbaa !10
  %45 = call i32 @Abc_ObjFaninId(ptr noundef %43, i32 noundef %44)
  %46 = mul nsw i32 %42, %45
  %47 = call ptr @Vec_WrdEntryP(ptr noundef %41, i32 noundef %46)
  store ptr %47, ptr %15, align 8, !tbaa !122
  %48 = load ptr, ptr %15, align 8, !tbaa !122
  %49 = load i32, ptr %11, align 4, !tbaa !10
  %50 = call i32 @Abc_InfoHasBit(ptr noundef %48, i32 noundef %49)
  %51 = load i32, ptr %13, align 4, !tbaa !10
  %52 = sext i32 %51 to i64
  %53 = getelementptr inbounds [6 x i32], ptr %14, i64 0, i64 %52
  store i32 %50, ptr %53, align 4, !tbaa !10
  call void @llvm.lifetime.end.p0(i64 8, ptr %15) #14
  br label %54

54:                                               ; preds = %40
  %55 = load i32, ptr %13, align 4, !tbaa !10
  %56 = add nsw i32 %55, 1
  store i32 %56, ptr %13, align 4, !tbaa !10
  br label %35, !llvm.loop !170

57:                                               ; preds = %35
  %58 = load ptr, ptr %12, align 8, !tbaa !27
  %59 = load i32, ptr %8, align 4, !tbaa !10
  %60 = call ptr @Mio_LibraryReadGateById(ptr noundef %58, i32 noundef %59)
  %61 = getelementptr inbounds [6 x i32], ptr %14, i64 0, i64 0
  %62 = call i32 @Mio_LibGateSimulateOne(ptr noundef %60, ptr noundef %61)
  store i32 %62, ptr %6, align 4
  call void @llvm.lifetime.end.p0(i64 24, ptr %14) #14
  call void @llvm.lifetime.end.p0(i64 4, ptr %13) #14
  call void @llvm.lifetime.end.p0(i64 8, ptr %12) #14
  br label %183

63:                                               ; preds = %26, %5
  call void @llvm.lifetime.start.p0(i64 8, ptr %16) #14
  %64 = load ptr, ptr %7, align 8, !tbaa !32
  %65 = call i32 @Abc_ObjFaninNum(ptr noundef %64)
  %66 = icmp sgt i32 %65, 0
  br i1 %66, label %67, label %74

67:                                               ; preds = %63
  %68 = load ptr, ptr %9, align 8, !tbaa !157
  %69 = load i32, ptr %10, align 4, !tbaa !10
  %70 = load ptr, ptr %7, align 8, !tbaa !32
  %71 = call i32 @Abc_ObjFaninId0(ptr noundef %70)
  %72 = mul nsw i32 %69, %71
  %73 = call ptr @Vec_WrdEntryP(ptr noundef %68, i32 noundef %72)
  br label %75

74:                                               ; preds = %63
  br label %75

75:                                               ; preds = %74, %67
  %76 = phi ptr [ %73, %67 ], [ null, %74 ]
  store ptr %76, ptr %16, align 8, !tbaa !122
  call void @llvm.lifetime.start.p0(i64 8, ptr %17) #14
  %77 = load ptr, ptr %7, align 8, !tbaa !32
  %78 = call i32 @Abc_ObjFaninNum(ptr noundef %77)
  %79 = icmp sgt i32 %78, 1
  br i1 %79, label %80, label %87

80:                                               ; preds = %75
  %81 = load ptr, ptr %9, align 8, !tbaa !157
  %82 = load i32, ptr %10, align 4, !tbaa !10
  %83 = load ptr, ptr %7, align 8, !tbaa !32
  %84 = call i32 @Abc_ObjFaninId1(ptr noundef %83)
  %85 = mul nsw i32 %82, %84
  %86 = call ptr @Vec_WrdEntryP(ptr noundef %81, i32 noundef %85)
  br label %88

87:                                               ; preds = %75
  br label %88

88:                                               ; preds = %87, %80
  %89 = phi ptr [ %86, %80 ], [ null, %87 ]
  store ptr %89, ptr %17, align 8, !tbaa !122
  call void @llvm.lifetime.start.p0(i64 4, ptr %18) #14
  %90 = load ptr, ptr %7, align 8, !tbaa !32
  %91 = call i32 @Abc_ObjFaninNum(ptr noundef %90)
  %92 = icmp sgt i32 %91, 0
  br i1 %92, label %93, label %97

93:                                               ; preds = %88
  %94 = load ptr, ptr %16, align 8, !tbaa !122
  %95 = load i32, ptr %11, align 4, !tbaa !10
  %96 = call i32 @Abc_InfoHasBit(ptr noundef %94, i32 noundef %95)
  br label %98

97:                                               ; preds = %88
  br label %98

98:                                               ; preds = %97, %93
  %99 = phi i32 [ %96, %93 ], [ -1, %97 ]
  store i32 %99, ptr %18, align 4, !tbaa !10
  call void @llvm.lifetime.start.p0(i64 4, ptr %19) #14
  %100 = load ptr, ptr %7, align 8, !tbaa !32
  %101 = call i32 @Abc_ObjFaninNum(ptr noundef %100)
  %102 = icmp sgt i32 %101, 1
  br i1 %102, label %103, label %107

103:                                              ; preds = %98
  %104 = load ptr, ptr %17, align 8, !tbaa !122
  %105 = load i32, ptr %11, align 4, !tbaa !10
  %106 = call i32 @Abc_InfoHasBit(ptr noundef %104, i32 noundef %105)
  br label %108

107:                                              ; preds = %98
  br label %108

108:                                              ; preds = %107, %103
  %109 = phi i32 [ %106, %103 ], [ -1, %107 ]
  store i32 %109, ptr %19, align 4, !tbaa !10
  %110 = load i32, ptr %8, align 4, !tbaa !10
  %111 = icmp eq i32 %110, -99
  br i1 %111, label %112, label %113

112:                                              ; preds = %108
  store i32 0, ptr %6, align 4
  store i32 1, ptr %20, align 4
  br label %182

113:                                              ; preds = %108
  %114 = load i32, ptr %8, align 4, !tbaa !10
  %115 = icmp eq i32 %114, -98
  br i1 %115, label %116, label %117

116:                                              ; preds = %113
  store i32 1, ptr %6, align 4
  store i32 1, ptr %20, align 4
  br label %182

117:                                              ; preds = %113
  %118 = load i32, ptr %8, align 4, !tbaa !10
  %119 = icmp eq i32 %118, -89
  br i1 %119, label %120, label %122

120:                                              ; preds = %117
  %121 = load i32, ptr %18, align 4, !tbaa !10
  store i32 %121, ptr %6, align 4
  store i32 1, ptr %20, align 4
  br label %182

122:                                              ; preds = %117
  %123 = load i32, ptr %8, align 4, !tbaa !10
  %124 = icmp eq i32 %123, -90
  br i1 %124, label %125, label %130

125:                                              ; preds = %122
  %126 = load i32, ptr %18, align 4, !tbaa !10
  %127 = icmp ne i32 %126, 0
  %128 = xor i1 %127, true
  %129 = zext i1 %128 to i32
  store i32 %129, ptr %6, align 4
  store i32 1, ptr %20, align 4
  br label %182

130:                                              ; preds = %122
  %131 = load i32, ptr %8, align 4, !tbaa !10
  %132 = icmp eq i32 %131, -96
  br i1 %132, label %133, label %137

133:                                              ; preds = %130
  %134 = load i32, ptr %18, align 4, !tbaa !10
  %135 = load i32, ptr %19, align 4, !tbaa !10
  %136 = and i32 %134, %135
  store i32 %136, ptr %6, align 4
  store i32 1, ptr %20, align 4
  br label %182

137:                                              ; preds = %130
  %138 = load i32, ptr %8, align 4, !tbaa !10
  %139 = icmp eq i32 %138, -94
  br i1 %139, label %140, label %144

140:                                              ; preds = %137
  %141 = load i32, ptr %18, align 4, !tbaa !10
  %142 = load i32, ptr %19, align 4, !tbaa !10
  %143 = or i32 %141, %142
  store i32 %143, ptr %6, align 4
  store i32 1, ptr %20, align 4
  br label %182

144:                                              ; preds = %137
  %145 = load i32, ptr %8, align 4, !tbaa !10
  %146 = icmp eq i32 %145, -92
  br i1 %146, label %147, label %151

147:                                              ; preds = %144
  %148 = load i32, ptr %18, align 4, !tbaa !10
  %149 = load i32, ptr %19, align 4, !tbaa !10
  %150 = xor i32 %148, %149
  store i32 %150, ptr %6, align 4
  store i32 1, ptr %20, align 4
  br label %182

151:                                              ; preds = %144
  %152 = load i32, ptr %8, align 4, !tbaa !10
  %153 = icmp eq i32 %152, -95
  br i1 %153, label %154, label %161

154:                                              ; preds = %151
  %155 = load i32, ptr %18, align 4, !tbaa !10
  %156 = load i32, ptr %19, align 4, !tbaa !10
  %157 = and i32 %155, %156
  %158 = icmp ne i32 %157, 0
  %159 = xor i1 %158, true
  %160 = zext i1 %159 to i32
  store i32 %160, ptr %6, align 4
  store i32 1, ptr %20, align 4
  br label %182

161:                                              ; preds = %151
  %162 = load i32, ptr %8, align 4, !tbaa !10
  %163 = icmp eq i32 %162, -93
  br i1 %163, label %164, label %171

164:                                              ; preds = %161
  %165 = load i32, ptr %18, align 4, !tbaa !10
  %166 = load i32, ptr %19, align 4, !tbaa !10
  %167 = or i32 %165, %166
  %168 = icmp ne i32 %167, 0
  %169 = xor i1 %168, true
  %170 = zext i1 %169 to i32
  store i32 %170, ptr %6, align 4
  store i32 1, ptr %20, align 4
  br label %182

171:                                              ; preds = %161
  %172 = load i32, ptr %8, align 4, !tbaa !10
  %173 = icmp eq i32 %172, -91
  br i1 %173, label %174, label %181

174:                                              ; preds = %171
  %175 = load i32, ptr %18, align 4, !tbaa !10
  %176 = load i32, ptr %19, align 4, !tbaa !10
  %177 = xor i32 %175, %176
  %178 = icmp ne i32 %177, 0
  %179 = xor i1 %178, true
  %180 = zext i1 %179 to i32
  store i32 %180, ptr %6, align 4
  store i32 1, ptr %20, align 4
  br label %182

181:                                              ; preds = %171
  store i32 -1, ptr %6, align 4
  store i32 1, ptr %20, align 4
  br label %182

182:                                              ; preds = %181, %174, %164, %154, %147, %140, %133, %125, %120, %116, %112
  call void @llvm.lifetime.end.p0(i64 4, ptr %19) #14
  call void @llvm.lifetime.end.p0(i64 4, ptr %18) #14
  call void @llvm.lifetime.end.p0(i64 8, ptr %17) #14
  call void @llvm.lifetime.end.p0(i64 8, ptr %16) #14
  br label %183

183:                                              ; preds = %182, %57
  %184 = load i32, ptr %6, align 4
  ret i32 %184
}