; Function Attrs: inlinehint nounwind uwtable
define internal fastcc i32 @Abc_NtkFinSimOneBit(ptr noundef nonnull readonly captures(none) %0, i32 noundef range(i32 -96, -97) %1, ptr noundef readonly captures(none) %2, i32 noundef %3, i32 noundef %4) unnamed_addr #10 {
  %6 = alloca [6 x i32], align 16
  %7 = load ptr, ptr %0, align 8, !tbaa !51
  %8 = getelementptr inbounds nuw i8, ptr %7, i64 4
  %9 = load i32, ptr %8, align 4, !tbaa !43
  %10 = icmp eq i32 %9, 4
  br i1 %10, label %Abc_NtkIsMappedLogic.exit, label %Abc_NtkIsMappedLogic.exit.thread

Abc_NtkIsMappedLogic.exit:                        ; preds = %5
  %11 = load i32, ptr %7, align 8, !tbaa !44
  %12 = icmp eq i32 %11, 2
  %13 = icmp sgt i32 %1, -1
  %or.cond = and i1 %13, %12
  br i1 %or.cond, label %14, label %Abc_NtkIsMappedLogic.exit.thread

14:                                               ; preds = %Abc_NtkIsMappedLogic.exit
  %15 = getelementptr inbounds nuw i8, ptr %7, i64 256
  %16 = load ptr, ptr %15, align 8, !tbaa !3
  call void @llvm.lifetime.start.p0(i64 24, ptr nonnull %6) #32
  %17 = getelementptr i8, ptr %0, i64 28
  %.val63 = load i32, ptr %17, align 4, !tbaa !55
  %18 = icmp sgt i32 %.val63, 0
  br i1 %18, label %.lr.ph, label %._crit_edge

.lr.ph:                                           ; preds = %14
  %19 = getelementptr i8, ptr %0, i64 32
  %.val64 = load ptr, ptr %19, align 8, !tbaa !52
  %20 = getelementptr i8, ptr %2, i64 8
  %.val69 = load ptr, ptr %20, align 8, !tbaa !138
  %21 = ashr i32 %4, 5
  %22 = sext i32 %21 to i64
  %invariant.gep = getelementptr i32, ptr %.val69, i64 %22
  %23 = and i32 %4, 31
  %wide.trip.count = zext nneg i32 %.val63 to i64
  br label %24

24:                                               ; preds = %.lr.ph, %24
  %indvars.iv = phi i64 [ 0, %.lr.ph ], [ %indvars.iv.next, %24 ]
  %25 = getelementptr inbounds nuw i32, ptr %.val64, i64 %indvars.iv
  %26 = load i32, ptr %25, align 4, !tbaa !34
  %27 = mul nsw i32 %26, %3
  %28 = sext i32 %27 to i64
  %gep = getelementptr i64, ptr %invariant.gep, i64 %28
  %29 = load i32, ptr %gep, align 4, !tbaa !34
  %30 = lshr i32 %29, %23
  %31 = and i32 %30, 1
  %32 = getelementptr inbounds nuw [6 x i32], ptr %6, i64 0, i64 %indvars.iv
  store i32 %31, ptr %32, align 4, !tbaa !34
  %indvars.iv.next = add nuw nsw i64 %indvars.iv, 1
  %exitcond.not = icmp eq i64 %indvars.iv.next, %wide.trip.count
  br i1 %exitcond.not, label %._crit_edge, label %24, !llvm.loop !157

._crit_edge:                                      ; preds = %24, %14
  %33 = tail call ptr @Mio_LibraryReadGateById(ptr noundef %16, i32 noundef %1) #32
  %34 = tail call i32 @Mio_GateReadPinNum(ptr noundef %33) #32
  %35 = icmp sgt i32 %34, 0
  br i1 %35, label %.lr.ph.preheader.i, label %Mio_LibGateSimulateOne.exit

.lr.ph.preheader.i:                               ; preds = %._crit_edge
  %wide.trip.count.i = zext nneg i32 %34 to i64
  br label %.lr.ph.i

.lr.ph.i:                                         ; preds = %.lr.ph.i, %.lr.ph.preheader.i
  %indvars.iv.i = phi i64 [ 0, %.lr.ph.preheader.i ], [ %indvars.iv.next.i, %.lr.ph.i ]
  %.011.i = phi i32 [ 0, %.lr.ph.preheader.i ], [ %.1.i, %.lr.ph.i ]
  %36 = getelementptr inbounds nuw i32, ptr %6, i64 %indvars.iv.i
  %37 = load i32, ptr %36, align 4, !tbaa !34
  %.not.i = icmp eq i32 %37, 0
  %38 = trunc nuw nsw i64 %indvars.iv.i to i32
  %39 = shl nuw i32 1, %38
  %40 = select i1 %.not.i, i32 0, i32 %39
  %.1.i = or i32 %40, %.011.i
  %indvars.iv.next.i = add nuw nsw i64 %indvars.iv.i, 1
  %exitcond.not.i = icmp eq i64 %indvars.iv.next.i, %wide.trip.count.i
  br i1 %exitcond.not.i, label %Mio_LibGateSimulateOne.exit, label %.lr.ph.i, !llvm.loop !111

Mio_LibGateSimulateOne.exit:                      ; preds = %.lr.ph.i, %._crit_edge
  %.0.lcssa.i = phi i32 [ 0, %._crit_edge ], [ %.1.i, %.lr.ph.i ]
  %41 = tail call ptr @Mio_GateReadTruthP(ptr noundef %33) #32
  %42 = ashr i32 %.0.lcssa.i, 5
  %43 = sext i32 %42 to i64
  %44 = getelementptr inbounds i32, ptr %41, i64 %43
  %45 = load i32, ptr %44, align 4, !tbaa !34
  %46 = and i32 %.0.lcssa.i, 31
  %47 = lshr i32 %45, %46
  %48 = and i32 %47, 1
  call void @llvm.lifetime.end.p0(i64 24, ptr nonnull %6) #32
  br label %102

Abc_NtkIsMappedLogic.exit.thread:                 ; preds = %5, %Abc_NtkIsMappedLogic.exit
  %49 = getelementptr i8, ptr %0, i64 28
  %.val62 = load i32, ptr %49, align 4, !tbaa !55
  %50 = icmp sgt i32 %.val62, 0
  br i1 %50, label %51, label %.thread72

51:                                               ; preds = %Abc_NtkIsMappedLogic.exit.thread
  %52 = getelementptr i8, ptr %0, i64 32
  %.val65 = load ptr, ptr %52, align 8, !tbaa !52
  %.val65.val = load i32, ptr %.val65, align 4, !tbaa !34
  %53 = mul nsw i32 %.val65.val, %3
  %54 = getelementptr i8, ptr %2, i64 8
  %.val68 = load ptr, ptr %54, align 8, !tbaa !138
  %55 = sext i32 %53 to i64
  %56 = getelementptr inbounds i64, ptr %.val68, i64 %55
  %.not76 = icmp eq i32 %.val62, 1
  br i1 %.not76, label %57, label %65

57:                                               ; preds = %51
  %58 = ashr i32 %4, 5
  %59 = sext i32 %58 to i64
  %60 = getelementptr inbounds i32, ptr %56, i64 %59
  %61 = load i32, ptr %60, align 4, !tbaa !34
  %62 = and i32 %4, 31
  %63 = lshr i32 %61, %62
  %64 = and i32 %63, 1
  br label %.thread72

65:                                               ; preds = %51
  %66 = getelementptr i8, ptr %.val65, i64 4
  %.val66.val = load i32, ptr %66, align 4, !tbaa !34
  %67 = mul nsw i32 %.val66.val, %3
  %68 = sext i32 %67 to i64
  %69 = getelementptr inbounds i64, ptr %.val68, i64 %68
  %70 = ashr i32 %4, 5
  %71 = sext i32 %70 to i64
  %72 = getelementptr inbounds i32, ptr %56, i64 %71
  %73 = load i32, ptr %72, align 4, !tbaa !34
  %74 = and i32 %4, 31
  %75 = lshr i32 %73, %74
  %76 = and i32 %75, 1
  %77 = getelementptr inbounds i32, ptr %69, i64 %71
  %78 = load i32, ptr %77, align 4, !tbaa !34
  %79 = lshr i32 %78, %74
  %80 = and i32 %79, 1
  br label %.thread72

.thread72:                                        ; preds = %Abc_NtkIsMappedLogic.exit.thread, %57, %65
  %81 = phi i32 [ %76, %65 ], [ %64, %57 ], [ -1, %Abc_NtkIsMappedLogic.exit.thread ]
  %82 = phi i32 [ %80, %65 ], [ -1, %57 ], [ -1, %Abc_NtkIsMappedLogic.exit.thread ]
  switch i32 %1, label %101 [
    i32 -99, label %102
    i32 -98, label %83
    i32 -89, label %84
    i32 -90, label %85
    i32 -96, label %87
    i32 -94, label %89
    i32 -92, label %91
    i32 -95, label %93
    i32 -93, label %96
    i32 -91, label %99
  ]

83:                                               ; preds = %.thread72
  br label %102

84:                                               ; preds = %.thread72
  br label %102

85:                                               ; preds = %.thread72
  %.not59 = icmp eq i32 %81, 0
  %86 = zext i1 %.not59 to i32
  br label %102

87:                                               ; preds = %.thread72
  %88 = and i32 %82, %81
  br label %102

89:                                               ; preds = %.thread72
  %90 = or i32 %82, %81
  br label %102

91:                                               ; preds = %.thread72
  %92 = xor i32 %82, %81
  br label %102

93:                                               ; preds = %.thread72
  %94 = and i32 %82, %81
  %.not58 = icmp eq i32 %94, 0
  %95 = zext i1 %.not58 to i32
  br label %102

96:                                               ; preds = %.thread72
  %97 = or i32 %82, %81
  %.not57 = icmp eq i32 %97, 0
  %98 = zext i1 %.not57 to i32
  br label %102

99:                                               ; preds = %.thread72
  %.not = icmp eq i32 %81, %82
  %100 = zext i1 %.not to i32
  br label %102

101:                                              ; preds = %.thread72
  br label %102

102:                                              ; preds = %83, %84, %85, %87, %89, %91, %93, %96, %99, %101, %.thread72, %Mio_LibGateSimulateOne.exit
  %.0 = phi i32 [ %48, %Mio_LibGateSimulateOne.exit ], [ 1, %83 ], [ %81, %84 ], [ %86, %85 ], [ %88, %87 ], [ %90, %89 ], [ %92, %91 ], [ %95, %93 ], [ %98, %96 ], [ %100, %99 ], [ -1, %101 ], [ 0, %.thread72 ]
  ret i32 %.0
}